target datalayout = "e-m:e-p270:32:32-p271:32:32-p272:64:64-i64:64-i128:128-f80:128-n8:16:32:64-S128"
target triple = "x86_64-pc-linux-gnu"

; Function Attrs: nounwind uwtable
define internal ptr @GetInfo(ptr noundef %0, i32 noundef %1) #0 {
  %3 = alloca ptr, align 8
  %4 = alloca ptr, align 8
  %5 = alloca i32, align 4
  %6 = alloca i32, align 4
  store ptr %0, ptr %4, align 8
  store i32 %1, ptr %5, align 4
  %7 = load i32, ptr %5, align 4
  switch i32 %7, label %12 [
    i32 0, label %8
    i32 1, label %9
    i32 2, label %10
    i32 3, label %11
  ]

8:                                                ; preds = %2
  store i32 1684370275, ptr %6, align 4
  br label %13

9:                                                ; preds = %2
  store i32 1684893284, ptr %6, align 4
  br label %13

10:                                               ; preds = %2
  store i32 1684890724, ptr %6, align 4
  br label %13

11:                                               ; preds = %2
  store i32 1668313716, ptr %6, align 4
  br label %13

12:                                               ; preds = %2
  store ptr null, ptr %3, align 8
  br label %17

13:                                               ; preds = %11, %10, %9, %8
  %14 = load ptr, ptr %4, align 8
  %15 = load i32, ptr %6, align 4
  %16 = call ptr @cmsReadTag(ptr noundef %14, i32 noundef %15)
  store ptr %16, ptr %3, align 8
  br label %17

17:                                               ; preds = %13, %12
  %18 = load ptr, ptr %3, align 8
  ret ptr %18
}

; Function Attrs: nounwind uwtable
define hidden i32 @cmsGetProfileInfo(ptr noundef %0, i32 noundef %1, ptr noundef %2, ptr noundef %3, ptr noundef %4, i32 noundef %5) #0 {
  %7 = alloca i32, align 4
  %8 = alloca ptr, align 8
  %9 = alloca i32, align 4
  %10 = alloca ptr, align 8
  %11 = alloca ptr, align 8
  %12 = alloca ptr, align 8
  %13 = alloca i32, align 4
  %14 = alloca ptr, align 8
  store ptr %0, ptr %8, align 8
  store i32 %1, ptr %9, align 4
  store ptr %2, ptr %10, align 8
  store ptr %3, ptr %11, align 8
  store ptr %4, ptr %12, align 8
  store i32 %5, ptr %13, align 4
  %15 = load ptr, ptr %8, align 8
  %16 = load i32, ptr %9, align 4
  %17 = call ptr @GetInfo(ptr noundef %15, i32 noundef %16)
  store ptr %17, ptr %14, align 8
  %18 = load ptr, ptr %14, align 8
  %19 = icmp eq ptr %18, null
  br i1 %19, label %20, label %21

20:                                               ; preds = %6
  store i32 0, ptr %7, align 4
  br label %28

21:                                               ; preds = %6
  %22 = load ptr, ptr %14, align 8
  %23 = load ptr, ptr %10, align 8
  %24 = load ptr, ptr %11, align 8
  %25 = load ptr, ptr %12, align 8
  %26 = load i32, ptr %13, align 4
  %27 = call i32 @cmsMLUgetWide(ptr noundef %22, ptr noundef %23, ptr noundef %24, ptr noundef %25, i32 noundef %26)
  store i32 %27, ptr %7, align 4
  br label %28

28:                                               ; preds = %21, %20
  %29 = load i32, ptr %7, align 4
  ret i32 %29
}