; Function Attrs: nounwind uwtable
define hidden i32 @cmsGetProfileInfo(ptr noundef %0, i32 noundef %1, ptr noundef %2, ptr noundef %3, ptr noundef %4, i32 noundef %5) local_unnamed_addr #0 {
  %7 = icmp ult i32 %1, 4
  br i1 %7, label %switch.lookup, label %GetInfo.exit.thread

switch.lookup:                                    ; preds = %6
  %8 = zext nneg i32 %1 to i64
  %switch.gep = getelementptr inbounds [4 x i32], ptr @switch.table.cmsGetProfileInfoUTF8, i64 0, i64 %8
  %switch.load = load i32, ptr %switch.gep, align 4
  %9 = tail call ptr @cmsReadTag(ptr noundef %0, i32 noundef %switch.load) #4
  %10 = icmp eq ptr %9, null
  br i1 %10, label %GetInfo.exit.thread, label %11

11:                                               ; preds = %switch.lookup
  %12 = tail call i32 @cmsMLUgetWide(ptr noundef nonnull %9, ptr noundef %2, ptr noundef %3, ptr noundef %4, i32 noundef %5) #4
  br label %GetInfo.exit.thread

GetInfo.exit.thread:                              ; preds = %6, %switch.lookup, %11
  %.0 = phi i32 [ %12, %11 ], [ 0, %switch.lookup ], [ 0, %6 ]
  ret i32 %.0
}